target datalayout = "e-m:e-p270:32:32-p271:32:32-p272:64:64-i64:64-i128:128-f80:128-n8:16:32:64-S128"
target triple = "x86_64-pc-linux-gnu"

%struct.re_pattern_buffer = type { ptr, i32, i32, i32, i32, i32, i32, i32, i32, i32, i32, i32, i32, i32, ptr, ptr, ptr, ptr, i32, i32, i32, i32, i64, i64, i32, ptr, ptr, [256 x i8], ptr, ptr, i64, i64, i64, ptr }
%struct.OnigSyntaxType = type { i32, i32, i32, i32, %struct.OnigMetaCharTableType }
%struct.OnigMetaCharTableType = type { i32, i32, i32, i32, i32, i32 }

@OnigDefaultCaseFoldFlag = dso_local global i32 1073741824, align 4
@onig_inited = internal global i32 0, align 4

; Function Attrs: nounwind sspstrong uwtable
define dso_local i32 @onig_init() #0 {
  %1 = alloca i32, align 4
  %2 = load i32, ptr @onig_inited, align 4, !tbaa !7
  %3 = icmp ne i32 %2, 0
  br i1 %3, label %4, label %5

4:                                                ; preds = %0
  store i32 0, ptr %1, align 4
  br label %7

5:                                                ; preds = %0
  store i32 1, ptr @onig_inited, align 4, !tbaa !7
  %6 = call i32 @onigenc_init()
  store i32 0, ptr %1, align 4
  br label %7

7:                                                ; preds = %5, %4
  %8 = load i32, ptr %1, align 4
  ret i32 %8
}

; Function Attrs: nounwind sspstrong uwtable
define dso_local i32 @onig_compile(ptr noundef %0, ptr noundef %1, ptr noundef %2, ptr noundef %3) #0 {
  %5 = alloca ptr, align 8
  %6 = alloca ptr, align 8
  %7 = alloca ptr, align 8
  %8 = alloca ptr, align 8
  store ptr %0, ptr %5, align 8, !tbaa !21
  store ptr %1, ptr %6, align 8, !tbaa !35
  store ptr %2, ptr %7, align 8, !tbaa !35
  store ptr %3, ptr %8, align 8, !tbaa !36
  %9 = load ptr, ptr %5, align 8, !tbaa !21
  %10 = load ptr, ptr %6, align 8, !tbaa !35
  %11 = load ptr, ptr %7, align 8, !tbaa !35
  %12 = load ptr, ptr %8, align 8, !tbaa !36
  %13 = call i32 @onig_compile_ruby(ptr noundef %9, ptr noundef %10, ptr noundef %11, ptr noundef %12, ptr noundef null, i32 noundef 0)
  ret i32 %13
}

; Function Attrs: nounwind sspstrong uwtable
define dso_local i32 @onig_reg_init(ptr noundef %0, i32 noundef %1, i32 noundef %2, ptr noundef %3, ptr noundef %4) #0 {
  %6 = alloca i32, align 4
  %7 = alloca ptr, align 8
  %8 = alloca i32, align 4
  %9 = alloca i32, align 4
  %10 = alloca ptr, align 8
  %11 = alloca ptr, align 8
  store ptr %0, ptr %7, align 8, !tbaa !21
  store i32 %1, ptr %8, align 4, !tbaa !7
  store i32 %2, ptr %9, align 4, !tbaa !7
  store ptr %3, ptr %10, align 8, !tbaa !37
  store ptr %4, ptr %11, align 8, !tbaa !36
  %12 = load i32, ptr @onig_inited, align 4, !tbaa !7
  %13 = icmp ne i32 %12, 0
  br i1 %13, label %16, label %14

14:                                               ; preds = %5
  %15 = call i32 @onig_init()
  br label %16

16:                                               ; preds = %14, %5
  %17 = load ptr, ptr %7, align 8, !tbaa !21
  %18 = icmp eq ptr %17, null
  br i1 %18, label %19, label %20

19:                                               ; preds = %16
  store i32 -30, ptr %6, align 4
  br label %80

20:                                               ; preds = %16
  %21 = load ptr, ptr %10, align 8, !tbaa !37
  %22 = icmp eq ptr %21, null
  br i1 %22, label %23, label %24

23:                                               ; preds = %20
  store i32 -21, ptr %6, align 4
  br label %80

24:                                               ; preds = %20
  %25 = load i32, ptr %8, align 4, !tbaa !7
  %26 = and i32 %25, 384
  %27 = icmp eq i32 %26, 384
  br i1 %27, label %28, label %29

28:                                               ; preds = %24
  store i32 -403, ptr %6, align 4
  br label %80

29:                                               ; preds = %24
  %30 = load i32, ptr %8, align 4, !tbaa !7
  %31 = and i32 %30, 64
  %32 = icmp ne i32 %31, 0
  br i1 %32, label %33, label %41

33:                                               ; preds = %29
  %34 = load ptr, ptr %11, align 8, !tbaa !36
  %35 = getelementptr inbounds nuw %struct.OnigSyntaxType, ptr %34, i32 0, i32 3
  %36 = load i32, ptr %35, align 4, !tbaa !174
  %37 = load i32, ptr %8, align 4, !tbaa !7
  %38 = or i32 %37, %36
  store i32 %38, ptr %8, align 4, !tbaa !7
  %39 = load i32, ptr %8, align 4, !tbaa !7
  %40 = and i32 %39, -9
  store i32 %40, ptr %8, align 4, !tbaa !7
  br label %47

41:                                               ; preds = %29
  %42 = load ptr, ptr %11, align 8, !tbaa !36
  %43 = getelementptr inbounds nuw %struct.OnigSyntaxType, ptr %42, i32 0, i32 3
  %44 = load i32, ptr %43, align 4, !tbaa !174
  %45 = load i32, ptr %8, align 4, !tbaa !7
  %46 = or i32 %45, %44
  store i32 %46, ptr %8, align 4, !tbaa !7
  br label %47

47:                                               ; preds = %41, %33
  %48 = load ptr, ptr %10, align 8, !tbaa !37
  %49 = load ptr, ptr %7, align 8, !tbaa !21
  %50 = getelementptr inbounds nuw %struct.re_pattern_buffer, ptr %49, i32 0, i32 15
  store ptr %48, ptr %50, align 8, !tbaa !142
  %51 = load i32, ptr %8, align 4, !tbaa !7
  %52 = load ptr, ptr %7, align 8, !tbaa !21
  %53 = getelementptr inbounds nuw %struct.re_pattern_buffer, ptr %52, i32 0, i32 13
  store i32 %51, ptr %53, align 8, !tbaa !64
  %54 = load ptr, ptr %11, align 8, !tbaa !36
  %55 = load ptr, ptr %7, align 8, !tbaa !21
  %56 = getelementptr inbounds nuw %struct.re_pattern_buffer, ptr %55, i32 0, i32 16
  store ptr %54, ptr %56, align 8, !tbaa !175
  %57 = load ptr, ptr %7, align 8, !tbaa !21
  %58 = getelementptr inbounds nuw %struct.re_pattern_buffer, ptr %57, i32 0, i32 19
  store i32 0, ptr %58, align 4, !tbaa !136
  %59 = load ptr, ptr %7, align 8, !tbaa !21
  %60 = getelementptr inbounds nuw %struct.re_pattern_buffer, ptr %59, i32 0, i32 25
  store ptr null, ptr %60, align 8, !tbaa !27
  %61 = load ptr, ptr %7, align 8, !tbaa !21
  %62 = getelementptr inbounds nuw %struct.re_pattern_buffer, ptr %61, i32 0, i32 28
  store ptr null, ptr %62, align 8, !tbaa !28
  %63 = load ptr, ptr %7, align 8, !tbaa !21
  %64 = getelementptr inbounds nuw %struct.re_pattern_buffer, ptr %63, i32 0, i32 29
  store ptr null, ptr %64, align 8, !tbaa !29
  %65 = load ptr, ptr %7, align 8, !tbaa !21
  %66 = getelementptr inbounds nuw %struct.re_pattern_buffer, ptr %65, i32 0, i32 33
  store ptr null, ptr %66, align 8, !tbaa !31
  %67 = load ptr, ptr %7, align 8, !tbaa !21
  %68 = getelementptr inbounds nuw %struct.re_pattern_buffer, ptr %67, i32 0, i32 0
  store ptr null, ptr %68, align 8, !tbaa !23
  %69 = load ptr, ptr %7, align 8, !tbaa !21
  %70 = getelementptr inbounds nuw %struct.re_pattern_buffer, ptr %69, i32 0, i32 2
  store i32 0, ptr %70, align 4, !tbaa !41
  %71 = load ptr, ptr %7, align 8, !tbaa !21
  %72 = getelementptr inbounds nuw %struct.re_pattern_buffer, ptr %71, i32 0, i32 1
  store i32 0, ptr %72, align 8, !tbaa !55
  %73 = load ptr, ptr %7, align 8, !tbaa !21
  %74 = getelementptr inbounds nuw %struct.re_pattern_buffer, ptr %73, i32 0, i32 17
  store ptr null, ptr %74, align 8, !tbaa !43
  %75 = load i32, ptr %9, align 4, !tbaa !7
  %76 = load ptr, ptr %7, align 8, !tbaa !21
  %77 = getelementptr inbounds nuw %struct.re_pattern_buffer, ptr %76, i32 0, i32 18
  store i32 %75, ptr %77, align 8, !tbaa !147
  %78 = load ptr, ptr %7, align 8, !tbaa !21
  %79 = getelementptr inbounds nuw %struct.re_pattern_buffer, ptr %78, i32 0, i32 32
  store i64 0, ptr %79, align 8, !tbaa !176
  store i32 0, ptr %6, align 4
  br label %80

80:                                               ; preds = %47, %28, %23, %19
  %81 = load i32, ptr %6, align 4
  ret i32 %81
}

; Function Attrs: nounwind sspstrong uwtable
define dso_local void @onig_free(ptr noundef %0) #0 {
  %2 = alloca ptr, align 8
  store ptr %0, ptr %2, align 8, !tbaa !21
  %3 = load ptr, ptr %2, align 8, !tbaa !21
  %4 = icmp ne ptr %3, null
  br i1 %4, label %5, label %8

5:                                                ; preds = %1
  %6 = load ptr, ptr %2, align 8, !tbaa !21
  call void @onig_free_body(ptr noundef %6)
  %7 = load ptr, ptr %2, align 8, !tbaa !21
  call void @free(ptr noundef %7) #11
  br label %8

8:                                                ; preds = %5, %1
  ret void
}

; Function Attrs: nounwind sspstrong uwtable
define dso_local i32 @onig_new_without_alloc(ptr noundef %0, ptr noundef %1, ptr noundef %2, i32 noundef %3, ptr noundef %4, ptr noundef %5, ptr noundef %6) #0 {
  %8 = alloca i32, align 4
  %9 = alloca ptr, align 8
  %10 = alloca ptr, align 8
  %11 = alloca ptr, align 8
  %12 = alloca i32, align 4
  %13 = alloca ptr, align 8
  %14 = alloca ptr, align 8
  %15 = alloca ptr, align 8
  %16 = alloca i32, align 4
  %17 = alloca i32, align 4
  store ptr %0, ptr %9, align 8, !tbaa !21
  store ptr %1, ptr %10, align 8, !tbaa !35
  store ptr %2, ptr %11, align 8, !tbaa !35
  store i32 %3, ptr %12, align 4, !tbaa !7
  store ptr %4, ptr %13, align 8, !tbaa !37
  store ptr %5, ptr %14, align 8, !tbaa !36
  store ptr %6, ptr %15, align 8, !tbaa !36
  call void @llvm.lifetime.start.p0(i64 4, ptr %16) #11
  %18 = load ptr, ptr %9, align 8, !tbaa !21
  %19 = load i32, ptr %12, align 4, !tbaa !7
  %20 = load i32, ptr @OnigDefaultCaseFoldFlag, align 4, !tbaa !7
  %21 = load ptr, ptr %13, align 8, !tbaa !37
  %22 = load ptr, ptr %14, align 8, !tbaa !36
  %23 = call i32 @onig_reg_init(ptr noundef %18, i32 noundef %19, i32 noundef %20, ptr noundef %21, ptr noundef %22)
  store i32 %23, ptr %16, align 4, !tbaa !7
  %24 = load i32, ptr %16, align 4, !tbaa !7
  %25 = icmp ne i32 %24, 0
  br i1 %25, label %26, label %28

26:                                               ; preds = %7
  %27 = load i32, ptr %16, align 4, !tbaa !7
  store i32 %27, ptr %8, align 4
  store i32 1, ptr %17, align 4
  br label %35

28:                                               ; preds = %7
  %29 = load ptr, ptr %9, align 8, !tbaa !21
  %30 = load ptr, ptr %10, align 8, !tbaa !35
  %31 = load ptr, ptr %11, align 8, !tbaa !35
  %32 = load ptr, ptr %15, align 8, !tbaa !36
  %33 = call i32 @onig_compile(ptr noundef %29, ptr noundef %30, ptr noundef %31, ptr noundef %32)
  store i32 %33, ptr %16, align 4, !tbaa !7
  %34 = load i32, ptr %16, align 4, !tbaa !7
  store i32 %34, ptr %8, align 4
  store i32 1, ptr %17, align 4
  br label %35

35:                                               ; preds = %28, %26
  call void @llvm.lifetime.end.p0(i64 4, ptr %16) #11
  %36 = load i32, ptr %8, align 4
  ret i32 %36
}

; Function Attrs: nounwind sspstrong uwtable
define dso_local i32 @onig_new(ptr noundef %0, ptr noundef %1, ptr noundef %2, i32 noundef %3, ptr noundef %4, ptr noundef %5, ptr noundef %6) #0 {
  %8 = alloca i32, align 4
  %9 = alloca ptr, align 8
  %10 = alloca ptr, align 8
  %11 = alloca ptr, align 8
  %12 = alloca i32, align 4
  %13 = alloca ptr, align 8
  %14 = alloca ptr, align 8
  %15 = alloca ptr, align 8
  %16 = alloca i32, align 4
  store ptr %0, ptr %9, align 8, !tbaa !32
  store ptr %1, ptr %10, align 8, !tbaa !35
  store ptr %2, ptr %11, align 8, !tbaa !35
  store i32 %3, ptr %12, align 4, !tbaa !7
  store ptr %4, ptr %13, align 8, !tbaa !37
  store ptr %5, ptr %14, align 8, !tbaa !36
  store ptr %6, ptr %15, align 8, !tbaa !36
  %17 = call noalias ptr @malloc(i64 noundef 456) #10
  %18 = load ptr, ptr %9, align 8, !tbaa !32
  store ptr %17, ptr %18, align 8, !tbaa !21
  %19 = load ptr, ptr %9, align 8, !tbaa !32
  %20 = load ptr, ptr %19, align 8, !tbaa !21
  %21 = icmp eq ptr %20, null
  br i1 %21, label %22, label %23

22:                                               ; preds = %7
  store i32 -5, ptr %8, align 4
  br label %41

23:                                               ; preds = %7
  call void @llvm.lifetime.start.p0(i64 4, ptr %16) #11
  %24 = load ptr, ptr %9, align 8, !tbaa !32
  %25 = load ptr, ptr %24, align 8, !tbaa !21
  %26 = load ptr, ptr %10, align 8, !tbaa !35
  %27 = load ptr, ptr %11, align 8, !tbaa !35
  %28 = load i32, ptr %12, align 4, !tbaa !7
  %29 = load ptr, ptr %13, align 8, !tbaa !37
  %30 = load ptr, ptr %14, align 8, !tbaa !36
  %31 = load ptr, ptr %15, align 8, !tbaa !36
  %32 = call i32 @onig_new_without_alloc(ptr noundef %25, ptr noundef %26, ptr noundef %27, i32 noundef %28, ptr noundef %29, ptr noundef %30, ptr noundef %31)
  store i32 %32, ptr %16, align 4, !tbaa !7
  %33 = load i32, ptr %16, align 4, !tbaa !7
  %34 = icmp ne i32 %33, 0
  br i1 %34, label %35, label %39

35:                                               ; preds = %23
  %36 = load ptr, ptr %9, align 8, !tbaa !32
  %37 = load ptr, ptr %36, align 8, !tbaa !21
  call void @onig_free(ptr noundef %37)
  %38 = load ptr, ptr %9, align 8, !tbaa !32
  store ptr null, ptr %38, align 8, !tbaa !21
  br label %39

39:                                               ; preds = %35, %23
  %40 = load i32, ptr %16, align 4, !tbaa !7
  store i32 %40, ptr %8, align 4
  call void @llvm.lifetime.end.p0(i64 4, ptr %16) #11
  br label %41

41:                                               ; preds = %39, %22
  %42 = load i32, ptr %8, align 4
  ret i32 %42
}