; Function Attrs: nounwind sspstrong uwtable
define dso_local i32 @onig_new(ptr noundef captures(none) initializes((0, 8)) %0, ptr noundef %1, ptr noundef %2, i32 noundef %3, ptr noundef %4, ptr noundef %5, ptr noundef captures(address_is_null) %6) local_unnamed_addr #4 {
  %8 = tail call noalias dereferenceable_or_null(456) ptr @malloc(i64 noundef 456) #19
  store ptr %8, ptr %0, align 8, !tbaa !28
  %9 = icmp eq ptr %8, null
  br i1 %9, label %36, label %10

10:                                               ; preds = %7
  %11 = load i32, ptr @OnigDefaultCaseFoldFlag, align 4, !tbaa !7
  %.b.i.i = load i1, ptr @onig_inited, align 4
  br i1 %.b.i.i, label %13, label %onig_init.exit.i.i

onig_init.exit.i.i:                               ; preds = %10
  store i1 true, ptr @onig_inited, align 4
  %12 = tail call i32 @onigenc_init() #20
  br label %13

13:                                               ; preds = %10, %onig_init.exit.i.i
  %14 = icmp eq ptr %4, null
  br i1 %14, label %onig_new_without_alloc.exit.thread, label %15

15:                                               ; preds = %13
  %16 = and i32 %3, 384
  %17 = icmp eq i32 %16, 384
  br i1 %17, label %onig_new_without_alloc.exit.thread, label %onig_new_without_alloc.exit

onig_new_without_alloc.exit:                      ; preds = %15
  %18 = and i32 %3, 64
  %.not.i.i = icmp eq i32 %18, 0
  %19 = getelementptr inbounds nuw i8, ptr %5, i64 12
  %20 = load i32, ptr %19, align 4, !tbaa !214
  %21 = or i32 %20, %3
  %22 = and i32 %21, -9
  %.027.i.i = select i1 %.not.i.i, i32 %21, i32 %22
  %23 = getelementptr inbounds nuw i8, ptr %8, i64 72
  store ptr %4, ptr %23, align 8, !tbaa !73
  %24 = getelementptr inbounds nuw i8, ptr %8, i64 56
  store i32 %.027.i.i, ptr %24, align 8, !tbaa !57
  %25 = getelementptr inbounds nuw i8, ptr %8, i64 80
  store ptr %5, ptr %25, align 8, !tbaa !215
  %26 = getelementptr inbounds nuw i8, ptr %8, i64 100
  store i32 0, ptr %26, align 4, !tbaa !102
  %27 = getelementptr inbounds nuw i8, ptr %8, i64 136
  store ptr null, ptr %27, align 8, !tbaa !23
  %28 = getelementptr inbounds nuw i8, ptr %8, i64 408
  %29 = getelementptr inbounds nuw i8, ptr %8, i64 448
  store ptr null, ptr %29, align 8, !tbaa !27
  %30 = getelementptr inbounds nuw i8, ptr %8, i64 88
  store ptr null, ptr %30, align 8, !tbaa !39
  %31 = getelementptr inbounds nuw i8, ptr %8, i64 96
  tail call void @llvm.memset.p0.i64(ptr noundef nonnull align 8 dereferenceable(16) %8, i8 0, i64 16, i1 false)
  tail call void @llvm.memset.p0.i64(ptr noundef nonnull align 8 dereferenceable(16) %28, i8 0, i64 16, i1 false)
  store i32 %11, ptr %31, align 8, !tbaa !78
  %32 = getelementptr inbounds nuw i8, ptr %8, i64 440
  store i64 0, ptr %32, align 8, !tbaa !216
  %33 = tail call i32 @onig_compile_ruby(ptr noundef nonnull %8, ptr noundef %1, ptr noundef %2, ptr noundef %6, ptr noundef null, i32 noundef 0)
  %.not = icmp eq i32 %33, 0
  br i1 %.not, label %36, label %onig_new_without_alloc.exit.thread

onig_new_without_alloc.exit.thread:               ; preds = %13, %15, %onig_new_without_alloc.exit
  %.0.i16 = phi i32 [ %33, %onig_new_without_alloc.exit ], [ -21, %13 ], [ -403, %15 ]
  %34 = load ptr, ptr %0, align 8, !tbaa !28
  %.not.i = icmp eq ptr %34, null
  br i1 %.not.i, label %onig_free.exit, label %35

35:                                               ; preds = %onig_new_without_alloc.exit.thread
  tail call void @onig_free_body(ptr noundef nonnull %34)
  tail call void @free(ptr noundef nonnull %34) #20
  br label %onig_free.exit

onig_free.exit:                                   ; preds = %onig_new_without_alloc.exit.thread, %35
  store ptr null, ptr %0, align 8, !tbaa !28
  br label %36

36:                                               ; preds = %onig_new_without_alloc.exit, %onig_free.exit, %7
  %.0 = phi i32 [ -5, %7 ], [ %.0.i16, %onig_free.exit ], [ 0, %onig_new_without_alloc.exit ]
  ret i32 %.0
}